target datalayout = "e-m:e-p270:32:32-p271:32:32-p272:64:64-i64:64-i128:128-f80:128-n8:16:32:64-S128"
target triple = "x86_64-pc-linux-gnu"

%"struct.Luau::CodeGen::IrOp" = type { i32 }

; Function Attrs: mustprogress uwtable
define dso_local void @_ZN4Luau7CodeGen16translateInstOrXERNS0_9IrBuilderEPKjiNS0_4IrOpE(ptr noundef nonnull align 8 dereferenceable(752) %0, ptr noundef %1, i32 noundef %2, i32 %3) #0 {
  %5 = alloca %"struct.Luau::CodeGen::IrOp", align 4
  %6 = alloca ptr, align 8
  %7 = alloca ptr, align 8
  %8 = alloca i32, align 4
  %9 = alloca i32, align 4
  %10 = alloca i32, align 4
  %11 = alloca %"struct.Luau::CodeGen::IrOp", align 4
  %12 = alloca %"struct.Luau::CodeGen::IrOp", align 4
  %13 = alloca %"struct.Luau::CodeGen::IrOp", align 4
  %14 = alloca %"struct.Luau::CodeGen::IrOp", align 4
  %15 = alloca %"struct.Luau::CodeGen::IrOp", align 4
  %16 = alloca %"struct.Luau::CodeGen::IrOp", align 4
  %17 = alloca %"struct.Luau::CodeGen::IrOp", align 4
  %18 = alloca %"struct.Luau::CodeGen::IrOp", align 4
  %19 = alloca %"struct.Luau::CodeGen::IrOp", align 4
  %20 = alloca %"struct.Luau::CodeGen::IrOp", align 4
  %21 = alloca %"struct.Luau::CodeGen::IrOp", align 4
  %22 = alloca %"struct.Luau::CodeGen::IrOp", align 4
  %23 = alloca %"struct.Luau::CodeGen::IrOp", align 4
  %24 = alloca %"struct.Luau::CodeGen::IrOp", align 4
  %25 = alloca %"struct.Luau::CodeGen::IrOp", align 4
  %26 = alloca %"struct.Luau::CodeGen::IrOp", align 4
  %27 = alloca %"struct.Luau::CodeGen::IrOp", align 4
  %28 = alloca %"struct.Luau::CodeGen::IrOp", align 4
  %29 = alloca %"struct.Luau::CodeGen::IrOp", align 4
  %30 = alloca %"struct.Luau::CodeGen::IrOp", align 4
  %31 = alloca %"struct.Luau::CodeGen::IrOp", align 4
  %32 = alloca %"struct.Luau::CodeGen::IrOp", align 4
  %33 = alloca %"struct.Luau::CodeGen::IrOp", align 4
  %34 = alloca %"struct.Luau::CodeGen::IrOp", align 4
  %35 = alloca %"struct.Luau::CodeGen::IrOp", align 4
  %36 = getelementptr inbounds nuw %"struct.Luau::CodeGen::IrOp", ptr %5, i32 0, i32 0
  store i32 %3, ptr %36, align 4
  store ptr %0, ptr %6, align 8, !tbaa !4
  store ptr %1, ptr %7, align 8, !tbaa !9
  store i32 %2, ptr %8, align 4, !tbaa !11
  call void @llvm.lifetime.start.p0(i64 4, ptr %9) #13
  %37 = load ptr, ptr %7, align 8, !tbaa !9
  %38 = load i32, ptr %37, align 4, !tbaa !11
  %39 = lshr i32 %38, 8
  %40 = and i32 %39, 255
  store i32 %40, ptr %9, align 4, !tbaa !11
  call void @llvm.lifetime.start.p0(i64 4, ptr %10) #13
  %41 = load ptr, ptr %7, align 8, !tbaa !9
  %42 = load i32, ptr %41, align 4, !tbaa !11
  %43 = lshr i32 %42, 16
  %44 = and i32 %43, 255
  store i32 %44, ptr %10, align 4, !tbaa !11
  call void @llvm.lifetime.start.p0(i64 4, ptr %11) #13
  %45 = load ptr, ptr %6, align 8, !tbaa !4
  %46 = call i32 @_ZN4Luau7CodeGen9IrBuilder5blockENS0_11IrBlockKindE(ptr noundef nonnull align 8 dereferenceable(752) %45, i8 noundef zeroext 2)
  %47 = getelementptr inbounds nuw %"struct.Luau::CodeGen::IrOp", ptr %11, i32 0, i32 0
  store i32 %46, ptr %47, align 4
  call void @llvm.lifetime.start.p0(i64 4, ptr %12) #13
  %48 = load ptr, ptr %6, align 8, !tbaa !4
  %49 = load i32, ptr %8, align 4, !tbaa !11
  %50 = add nsw i32 %49, 1
  %51 = call i32 @_ZN4Luau7CodeGen9IrBuilder11blockAtInstEj(ptr noundef nonnull align 8 dereferenceable(752) %48, i32 noundef %50)
  %52 = getelementptr inbounds nuw %"struct.Luau::CodeGen::IrOp", ptr %12, i32 0, i32 0
  store i32 %51, ptr %52, align 4
  call void @llvm.lifetime.start.p0(i64 4, ptr %13) #13
  %53 = load i32, ptr %9, align 4, !tbaa !11
  %54 = load i32, ptr %10, align 4, !tbaa !11
  %55 = icmp eq i32 %53, %54
  br i1 %55, label %56, label %57

56:                                               ; preds = %4
  call void @llvm.memcpy.p0.p0.i64(ptr align 4 %13, ptr align 4 %12, i64 4, i1 false), !tbaa.struct !112
  br label %61

57:                                               ; preds = %4
  %58 = load ptr, ptr %6, align 8, !tbaa !4
  %59 = call i32 @_ZN4Luau7CodeGen9IrBuilder5blockENS0_11IrBlockKindE(ptr noundef nonnull align 8 dereferenceable(752) %58, i8 noundef zeroext 2)
  %60 = getelementptr inbounds nuw %"struct.Luau::CodeGen::IrOp", ptr %13, i32 0, i32 0
  store i32 %59, ptr %60, align 4
  br label %61

61:                                               ; preds = %57, %56
  %62 = load ptr, ptr %6, align 8, !tbaa !4
  %63 = load ptr, ptr %6, align 8, !tbaa !4
  %64 = load i32, ptr %10, align 4, !tbaa !11
  %65 = trunc i32 %64 to i8
  %66 = call i32 @_ZN4Luau7CodeGen9IrBuilder5vmRegEh(ptr noundef nonnull align 8 dereferenceable(752) %63, i8 noundef zeroext %65)
  %67 = getelementptr inbounds nuw %"struct.Luau::CodeGen::IrOp", ptr %14, i32 0, i32 0
  store i32 %66, ptr %67, align 4
  call void @llvm.memcpy.p0.p0.i64(ptr align 4 %15, ptr align 4 %13, i64 4, i1 false), !tbaa.struct !112
  call void @llvm.memcpy.p0.p0.i64(ptr align 4 %16, ptr align 4 %11, i64 4, i1 false), !tbaa.struct !112
  %68 = getelementptr inbounds nuw %"struct.Luau::CodeGen::IrOp", ptr %14, i32 0, i32 0
  %69 = load i32, ptr %68, align 4
  %70 = getelementptr inbounds nuw %"struct.Luau::CodeGen::IrOp", ptr %15, i32 0, i32 0
  %71 = load i32, ptr %70, align 4
  %72 = getelementptr inbounds nuw %"struct.Luau::CodeGen::IrOp", ptr %16, i32 0, i32 0
  %73 = load i32, ptr %72, align 4
  %74 = call i32 @_ZN4Luau7CodeGen9IrBuilder4instENS0_5IrCmdENS0_4IrOpES3_S3_(ptr noundef nonnull align 8 dereferenceable(752) %62, i8 noundef zeroext 47, i32 %69, i32 %71, i32 %73)
  %75 = getelementptr inbounds nuw %"struct.Luau::CodeGen::IrOp", ptr %17, i32 0, i32 0
  store i32 %74, ptr %75, align 4
  %76 = load ptr, ptr %6, align 8, !tbaa !4
  call void @llvm.memcpy.p0.p0.i64(ptr align 4 %18, ptr align 4 %11, i64 4, i1 false), !tbaa.struct !112
  %77 = getelementptr inbounds nuw %"struct.Luau::CodeGen::IrOp", ptr %18, i32 0, i32 0
  %78 = load i32, ptr %77, align 4
  call void @_ZN4Luau7CodeGen9IrBuilder10beginBlockENS0_4IrOpE(ptr noundef nonnull align 8 dereferenceable(752) %76, i32 %78)
  call void @llvm.lifetime.start.p0(i64 4, ptr %19) #13
  %79 = load ptr, ptr %6, align 8, !tbaa !4
  call void @llvm.memcpy.p0.p0.i64(ptr align 4 %20, ptr align 4 %5, i64 4, i1 false), !tbaa.struct !112
  %80 = getelementptr inbounds nuw %"struct.Luau::CodeGen::IrOp", ptr %20, i32 0, i32 0
  %81 = load i32, ptr %80, align 4
  %82 = call i32 @_ZN4Luau7CodeGen9IrBuilder4instENS0_5IrCmdENS0_4IrOpE(ptr noundef nonnull align 8 dereferenceable(752) %79, i8 noundef zeroext 6, i32 %81)
  %83 = getelementptr inbounds nuw %"struct.Luau::CodeGen::IrOp", ptr %19, i32 0, i32 0
  store i32 %82, ptr %83, align 4
  %84 = load ptr, ptr %6, align 8, !tbaa !4
  %85 = load ptr, ptr %6, align 8, !tbaa !4
  %86 = load i32, ptr %9, align 4, !tbaa !11
  %87 = trunc i32 %86 to i8
  %88 = call i32 @_ZN4Luau7CodeGen9IrBuilder5vmRegEh(ptr noundef nonnull align 8 dereferenceable(752) %85, i8 noundef zeroext %87)
  %89 = getelementptr inbounds nuw %"struct.Luau::CodeGen::IrOp", ptr %21, i32 0, i32 0
  store i32 %88, ptr %89, align 4
  call void @llvm.memcpy.p0.p0.i64(ptr align 4 %22, ptr align 4 %19, i64 4, i1 false), !tbaa.struct !112
  %90 = getelementptr inbounds nuw %"struct.Luau::CodeGen::IrOp", ptr %21, i32 0, i32 0
  %91 = load i32, ptr %90, align 4
  %92 = getelementptr inbounds nuw %"struct.Luau::CodeGen::IrOp", ptr %22, i32 0, i32 0
  %93 = load i32, ptr %92, align 4
  %94 = call i32 @_ZN4Luau7CodeGen9IrBuilder4instENS0_5IrCmdENS0_4IrOpES3_(ptr noundef nonnull align 8 dereferenceable(752) %84, i8 noundef zeroext 18, i32 %91, i32 %93)
  %95 = getelementptr inbounds nuw %"struct.Luau::CodeGen::IrOp", ptr %23, i32 0, i32 0
  store i32 %94, ptr %95, align 4
  %96 = load ptr, ptr %6, align 8, !tbaa !4
  call void @llvm.memcpy.p0.p0.i64(ptr align 4 %24, ptr align 4 %12, i64 4, i1 false), !tbaa.struct !112
  %97 = getelementptr inbounds nuw %"struct.Luau::CodeGen::IrOp", ptr %24, i32 0, i32 0
  %98 = load i32, ptr %97, align 4
  %99 = call i32 @_ZN4Luau7CodeGen9IrBuilder4instENS0_5IrCmdENS0_4IrOpE(ptr noundef nonnull align 8 dereferenceable(752) %96, i8 noundef zeroext 46, i32 %98)
  %100 = getelementptr inbounds nuw %"struct.Luau::CodeGen::IrOp", ptr %25, i32 0, i32 0
  store i32 %99, ptr %100, align 4
  %101 = load i32, ptr %9, align 4, !tbaa !11
  %102 = load i32, ptr %10, align 4, !tbaa !11
  %103 = icmp eq i32 %101, %102
  br i1 %103, label %104, label %108

104:                                              ; preds = %61
  %105 = load ptr, ptr %6, align 8, !tbaa !4
  call void @llvm.memcpy.p0.p0.i64(ptr align 4 %26, ptr align 4 %12, i64 4, i1 false), !tbaa.struct !112
  %106 = getelementptr inbounds nuw %"struct.Luau::CodeGen::IrOp", ptr %26, i32 0, i32 0
  %107 = load i32, ptr %106, align 4
  call void @_ZN4Luau7CodeGen9IrBuilder10beginBlockENS0_4IrOpE(ptr noundef nonnull align 8 dereferenceable(752) %105, i32 %107)
  br label %142

108:                                              ; preds = %61
  %109 = load ptr, ptr %6, align 8, !tbaa !4
  call void @llvm.memcpy.p0.p0.i64(ptr align 4 %27, ptr align 4 %13, i64 4, i1 false), !tbaa.struct !112
  %110 = getelementptr inbounds nuw %"struct.Luau::CodeGen::IrOp", ptr %27, i32 0, i32 0
  %111 = load i32, ptr %110, align 4
  call void @_ZN4Luau7CodeGen9IrBuilder10beginBlockENS0_4IrOpE(ptr noundef nonnull align 8 dereferenceable(752) %109, i32 %111)
  call void @llvm.lifetime.start.p0(i64 4, ptr %28) #13
  %112 = load ptr, ptr %6, align 8, !tbaa !4
  %113 = load ptr, ptr %6, align 8, !tbaa !4
  %114 = load i32, ptr %10, align 4, !tbaa !11
  %115 = trunc i32 %114 to i8
  %116 = call i32 @_ZN4Luau7CodeGen9IrBuilder5vmRegEh(ptr noundef nonnull align 8 dereferenceable(752) %113, i8 noundef zeroext %115)
  %117 = getelementptr inbounds nuw %"struct.Luau::CodeGen::IrOp", ptr %29, i32 0, i32 0
  store i32 %116, ptr %117, align 4
  %118 = getelementptr inbounds nuw %"struct.Luau::CodeGen::IrOp", ptr %29, i32 0, i32 0
  %119 = load i32, ptr %118, align 4
  %120 = call i32 @_ZN4Luau7CodeGen9IrBuilder4instENS0_5IrCmdENS0_4IrOpE(ptr noundef nonnull align 8 dereferenceable(752) %112, i8 noundef zeroext 6, i32 %119)
  %121 = getelementptr inbounds nuw %"struct.Luau::CodeGen::IrOp", ptr %28, i32 0, i32 0
  store i32 %120, ptr %121, align 4
  %122 = load ptr, ptr %6, align 8, !tbaa !4
  %123 = load ptr, ptr %6, align 8, !tbaa !4
  %124 = load i32, ptr %9, align 4, !tbaa !11
  %125 = trunc i32 %124 to i8
  %126 = call i32 @_ZN4Luau7CodeGen9IrBuilder5vmRegEh(ptr noundef nonnull align 8 dereferenceable(752) %123, i8 noundef zeroext %125)
  %127 = getelementptr inbounds nuw %"struct.Luau::CodeGen::IrOp", ptr %30, i32 0, i32 0
  store i32 %126, ptr %127, align 4
  call void @llvm.memcpy.p0.p0.i64(ptr align 4 %31, ptr align 4 %28, i64 4, i1 false), !tbaa.struct !112
  %128 = getelementptr inbounds nuw %"struct.Luau::CodeGen::IrOp", ptr %30, i32 0, i32 0
  %129 = load i32, ptr %128, align 4
  %130 = getelementptr inbounds nuw %"struct.Luau::CodeGen::IrOp", ptr %31, i32 0, i32 0
  %131 = load i32, ptr %130, align 4
  %132 = call i32 @_ZN4Luau7CodeGen9IrBuilder4instENS0_5IrCmdENS0_4IrOpES3_(ptr noundef nonnull align 8 dereferenceable(752) %122, i8 noundef zeroext 18, i32 %129, i32 %131)
  %133 = getelementptr inbounds nuw %"struct.Luau::CodeGen::IrOp", ptr %32, i32 0, i32 0
  store i32 %132, ptr %133, align 4
  %134 = load ptr, ptr %6, align 8, !tbaa !4
  call void @llvm.memcpy.p0.p0.i64(ptr align 4 %33, ptr align 4 %12, i64 4, i1 false), !tbaa.struct !112
  %135 = getelementptr inbounds nuw %"struct.Luau::CodeGen::IrOp", ptr %33, i32 0, i32 0
  %136 = load i32, ptr %135, align 4
  %137 = call i32 @_ZN4Luau7CodeGen9IrBuilder4instENS0_5IrCmdENS0_4IrOpE(ptr noundef nonnull align 8 dereferenceable(752) %134, i8 noundef zeroext 46, i32 %136)
  %138 = getelementptr inbounds nuw %"struct.Luau::CodeGen::IrOp", ptr %34, i32 0, i32 0
  store i32 %137, ptr %138, align 4
  %139 = load ptr, ptr %6, align 8, !tbaa !4
  call void @llvm.memcpy.p0.p0.i64(ptr align 4 %35, ptr align 4 %12, i64 4, i1 false), !tbaa.struct !112
  %140 = getelementptr inbounds nuw %"struct.Luau::CodeGen::IrOp", ptr %35, i32 0, i32 0
  %141 = load i32, ptr %140, align 4
  call void @_ZN4Luau7CodeGen9IrBuilder10beginBlockENS0_4IrOpE(ptr noundef nonnull align 8 dereferenceable(752) %139, i32 %141)
  call void @llvm.lifetime.end.p0(i64 4, ptr %28) #13
  br label %142

142:                                              ; preds = %108, %104
  call void @llvm.lifetime.end.p0(i64 4, ptr %19) #13
  call void @llvm.lifetime.end.p0(i64 4, ptr %13) #13
  call void @llvm.lifetime.end.p0(i64 4, ptr %12) #13
  call void @llvm.lifetime.end.p0(i64 4, ptr %11) #13
  call void @llvm.lifetime.end.p0(i64 4, ptr %10) #13
  call void @llvm.lifetime.end.p0(i64 4, ptr %9) #13
  ret void
}